target datalayout = "e-m:e-p270:32:32-p271:32:32-p272:64:64-i64:64-i128:128-f80:128-n8:16:32:64-S128"
target triple = "x86_64-pc-linux-gnu"

%struct.pkcs7_st = type { ptr, i64, i32, i32, ptr, %union.anon, %struct.PKCS7_CTX_st }
%union.anon = type { ptr }
%struct.PKCS7_CTX_st = type { ptr, ptr }

@.str = private unnamed_addr constant [36 x i8] c"../openssl/crypto/pkcs7/pk7_smime.c\00", align 1
@__func__.PKCS7_decrypt = private unnamed_addr constant [14 x i8] c"PKCS7_decrypt\00", align 1

; Function Attrs: nounwind uwtable
define i32 @PKCS7_decrypt(ptr noundef %0, ptr noundef %1, ptr noundef %2, ptr noundef %3, i32 noundef %4) #0 {
  %6 = alloca i32, align 4
  %7 = alloca ptr, align 8
  %8 = alloca ptr, align 8
  %9 = alloca ptr, align 8
  %10 = alloca ptr, align 8
  %11 = alloca i32, align 4
  %12 = alloca ptr, align 8
  %13 = alloca i32, align 4
  %14 = alloca i32, align 4
  %15 = alloca ptr, align 8
  %16 = alloca i32, align 4
  %17 = alloca ptr, align 8
  %18 = alloca ptr, align 8
  store ptr %0, ptr %7, align 8, !tbaa !20
  store ptr %1, ptr %8, align 8, !tbaa !8
  store ptr %2, ptr %9, align 8, !tbaa !3
  store ptr %3, ptr %10, align 8, !tbaa !12
  store i32 %4, ptr %11, align 4, !tbaa !14
  call void @llvm.lifetime.start.p0(i64 8, ptr %12) #4
  call void @llvm.lifetime.start.p0(i64 4, ptr %13) #4
  store i32 0, ptr %13, align 4, !tbaa !14
  call void @llvm.lifetime.start.p0(i64 4, ptr %14) #4
  call void @llvm.lifetime.start.p0(i64 8, ptr %15) #4
  store ptr null, ptr %15, align 8, !tbaa !18
  %19 = load ptr, ptr %7, align 8, !tbaa !20
  %20 = icmp eq ptr %19, null
  br i1 %20, label %21, label %22

21:                                               ; preds = %5
  call void @ERR_new()
  call void @ERR_set_debug(ptr noundef @.str, i32 noundef 485, ptr noundef @__func__.PKCS7_decrypt)
  call void (i32, i32, ptr, ...) @ERR_set_error(i32 noundef 33, i32 noundef 143, ptr noundef null)
  store i32 0, ptr %6, align 4
  store i32 1, ptr %16, align 4
  br label %125

22:                                               ; preds = %5
  %23 = load ptr, ptr %7, align 8, !tbaa !20
  %24 = getelementptr inbounds nuw %struct.pkcs7_st, ptr %23, i32 0, i32 4
  %25 = load ptr, ptr %24, align 8, !tbaa !56
  %26 = call i32 @OBJ_obj2nid(ptr noundef %25)
  %27 = icmp eq i32 %26, 23
  br i1 %27, label %35, label %28

28:                                               ; preds = %22
  %29 = load ptr, ptr %7, align 8, !tbaa !20
  %30 = getelementptr inbounds nuw %struct.pkcs7_st, ptr %29, i32 0, i32 4
  %31 = load ptr, ptr %30, align 8, !tbaa !56
  %32 = call i32 @OBJ_obj2nid(ptr noundef %31)
  %33 = icmp eq i32 %32, 24
  br i1 %33, label %35, label %34

34:                                               ; preds = %28
  call void @ERR_new()
  call void @ERR_set_debug(ptr noundef @.str, i32 noundef 491, ptr noundef @__func__.PKCS7_decrypt)
  call void (i32, i32, ptr, ...) @ERR_set_error(i32 noundef 33, i32 noundef 113, ptr noundef null)
  store i32 0, ptr %6, align 4
  store i32 1, ptr %16, align 4
  br label %125

35:                                               ; preds = %28, %22
  %36 = load ptr, ptr %9, align 8, !tbaa !3
  %37 = icmp ne ptr %36, null
  br i1 %37, label %38, label %44

38:                                               ; preds = %35
  %39 = load ptr, ptr %9, align 8, !tbaa !3
  %40 = load ptr, ptr %8, align 8, !tbaa !8
  %41 = call i32 @X509_check_private_key(ptr noundef %39, ptr noundef %40)
  %42 = icmp ne i32 %41, 0
  br i1 %42, label %44, label %43

43:                                               ; preds = %38
  call void @ERR_new()
  call void @ERR_set_debug(ptr noundef @.str, i32 noundef 497, ptr noundef @__func__.PKCS7_decrypt)
  call void (i32, i32, ptr, ...) @ERR_set_error(i32 noundef 33, i32 noundef 127, ptr noundef null)
  store i32 0, ptr %6, align 4
  store i32 1, ptr %16, align 4
  br label %125

44:                                               ; preds = %38, %35
  %45 = load ptr, ptr %7, align 8, !tbaa !20
  %46 = load ptr, ptr %8, align 8, !tbaa !8
  %47 = load ptr, ptr %9, align 8, !tbaa !3
  %48 = call ptr @PKCS7_dataDecode(ptr noundef %45, ptr noundef %46, ptr noundef null, ptr noundef %47)
  store ptr %48, ptr %12, align 8, !tbaa !12
  %49 = icmp eq ptr %48, null
  br i1 %49, label %50, label %51

50:                                               ; preds = %44
  call void @ERR_new()
  call void @ERR_set_debug(ptr noundef @.str, i32 noundef 502, ptr noundef @__func__.PKCS7_decrypt)
  call void (i32, i32, ptr, ...) @ERR_set_error(i32 noundef 33, i32 noundef 119, ptr noundef null)
  store i32 0, ptr %6, align 4
  store i32 1, ptr %16, align 4
  br label %125

51:                                               ; preds = %44
  %52 = load i32, ptr %11, align 4, !tbaa !14
  %53 = and i32 %52, 1
  %54 = icmp ne i32 %53, 0
  br i1 %54, label %55, label %89

55:                                               ; preds = %51
  call void @llvm.lifetime.start.p0(i64 8, ptr %17) #4
  call void @llvm.lifetime.start.p0(i64 8, ptr %18) #4
  %56 = call ptr @BIO_f_buffer()
  %57 = call ptr @BIO_new(ptr noundef %56)
  store ptr %57, ptr %17, align 8, !tbaa !12
  %58 = icmp eq ptr %57, null
  br i1 %58, label %59, label %61

59:                                               ; preds = %55
  call void @ERR_new()
  call void @ERR_set_debug(ptr noundef @.str, i32 noundef 510, ptr noundef @__func__.PKCS7_decrypt)
  call void (i32, i32, ptr, ...) @ERR_set_error(i32 noundef 33, i32 noundef 524320, ptr noundef null)
  %60 = load ptr, ptr %12, align 8, !tbaa !12
  call void @BIO_free_all(ptr noundef %60)
  store i32 0, ptr %6, align 4
  store i32 1, ptr %16, align 4
  br label %88

61:                                               ; preds = %55
  %62 = load ptr, ptr %17, align 8, !tbaa !12
  %63 = load ptr, ptr %12, align 8, !tbaa !12
  %64 = call ptr @BIO_push(ptr noundef %62, ptr noundef %63)
  store ptr %64, ptr %18, align 8, !tbaa !12
  %65 = icmp eq ptr %64, null
  br i1 %65, label %66, label %69

66:                                               ; preds = %61
  call void @ERR_new()
  call void @ERR_set_debug(ptr noundef @.str, i32 noundef 515, ptr noundef @__func__.PKCS7_decrypt)
  call void (i32, i32, ptr, ...) @ERR_set_error(i32 noundef 33, i32 noundef 524320, ptr noundef null)
  %67 = load ptr, ptr %17, align 8, !tbaa !12
  call void @BIO_free_all(ptr noundef %67)
  %68 = load ptr, ptr %12, align 8, !tbaa !12
  call void @BIO_free_all(ptr noundef %68)
  store i32 0, ptr %6, align 4
  store i32 1, ptr %16, align 4
  br label %88

69:                                               ; preds = %61
  %70 = load ptr, ptr %18, align 8, !tbaa !12
  %71 = load ptr, ptr %10, align 8, !tbaa !12
  %72 = call i32 @SMIME_text(ptr noundef %70, ptr noundef %71)
  store i32 %72, ptr %13, align 4, !tbaa !14
  %73 = load i32, ptr %13, align 4, !tbaa !14
  %74 = icmp sgt i32 %73, 0
  br i1 %74, label %75, label %85

75:                                               ; preds = %69
  %76 = load ptr, ptr %12, align 8, !tbaa !12
  %77 = call i32 @BIO_method_type(ptr noundef %76)
  %78 = icmp eq i32 %77, 522
  br i1 %78, label %79, label %85

79:                                               ; preds = %75
  %80 = load ptr, ptr %12, align 8, !tbaa !12
  %81 = call i64 @BIO_ctrl(ptr noundef %80, i32 noundef 113, i64 noundef 0, ptr noundef null)
  %82 = icmp sle i64 %81, 0
  br i1 %82, label %83, label %84

83:                                               ; preds = %79
  store i32 0, ptr %13, align 4, !tbaa !14
  br label %84

84:                                               ; preds = %83, %79
  br label %85

85:                                               ; preds = %84, %75, %69
  %86 = load ptr, ptr %18, align 8, !tbaa !12
  call void @BIO_free_all(ptr noundef %86)
  %87 = load i32, ptr %13, align 4, !tbaa !14
  store i32 %87, ptr %6, align 4
  store i32 1, ptr %16, align 4
  br label %88

88:                                               ; preds = %85, %66, %59
  call void @llvm.lifetime.end.p0(i64 8, ptr %18) #4
  call void @llvm.lifetime.end.p0(i64 8, ptr %17) #4
  br label %125

89:                                               ; preds = %51
  %90 = call noalias ptr @CRYPTO_malloc(i64 noundef 4096, ptr noundef @.str, i32 noundef 528)
  store ptr %90, ptr %15, align 8, !tbaa !18
  %91 = icmp eq ptr %90, null
  br i1 %91, label %92, label %93

92:                                               ; preds = %89
  br label %121

93:                                               ; preds = %89
  br label %94

94:                                               ; preds = %119, %93
  %95 = load ptr, ptr %12, align 8, !tbaa !12
  %96 = load ptr, ptr %15, align 8, !tbaa !18
  %97 = call i32 @BIO_read(ptr noundef %95, ptr noundef %96, i32 noundef 4096)
  store i32 %97, ptr %14, align 4, !tbaa !14
  %98 = load i32, ptr %14, align 4, !tbaa !14
  %99 = icmp sle i32 %98, 0
  br i1 %99, label %100, label %111

100:                                              ; preds = %94
  store i32 1, ptr %13, align 4, !tbaa !14
  %101 = load ptr, ptr %12, align 8, !tbaa !12
  %102 = call i32 @BIO_method_type(ptr noundef %101)
  %103 = icmp eq i32 %102, 522
  br i1 %103, label %104, label %110

104:                                              ; preds = %100
  %105 = load ptr, ptr %12, align 8, !tbaa !12
  %106 = call i64 @BIO_ctrl(ptr noundef %105, i32 noundef 113, i64 noundef 0, ptr noundef null)
  %107 = icmp sle i64 %106, 0
  br i1 %107, label %108, label %109

108:                                              ; preds = %104
  store i32 0, ptr %13, align 4, !tbaa !14
  br label %109

109:                                              ; preds = %108, %104
  br label %110

110:                                              ; preds = %109, %100
  br label %120

111:                                              ; preds = %94
  %112 = load ptr, ptr %10, align 8, !tbaa !12
  %113 = load ptr, ptr %15, align 8, !tbaa !18
  %114 = load i32, ptr %14, align 4, !tbaa !14
  %115 = call i32 @BIO_write(ptr noundef %112, ptr noundef %113, i32 noundef %114)
  %116 = load i32, ptr %14, align 4, !tbaa !14
  %117 = icmp ne i32 %115, %116
  br i1 %117, label %118, label %119

118:                                              ; preds = %111
  br label %120

119:                                              ; preds = %111
  br label %94

120:                                              ; preds = %118, %110
  br label %121

121:                                              ; preds = %120, %92
  %122 = load ptr, ptr %15, align 8, !tbaa !18
  call void @CRYPTO_free(ptr noundef %122, ptr noundef @.str, i32 noundef 546)
  %123 = load ptr, ptr %12, align 8, !tbaa !12
  call void @BIO_free_all(ptr noundef %123)
  %124 = load i32, ptr %13, align 4, !tbaa !14
  store i32 %124, ptr %6, align 4
  store i32 1, ptr %16, align 4
  br label %125

125:                                              ; preds = %121, %88, %50, %43, %34, %21
  call void @llvm.lifetime.end.p0(i64 8, ptr %15) #4
  call void @llvm.lifetime.end.p0(i64 4, ptr %14) #4
  call void @llvm.lifetime.end.p0(i64 4, ptr %13) #4
  call void @llvm.lifetime.end.p0(i64 8, ptr %12) #4
  %126 = load i32, ptr %6, align 4
  ret i32 %126
}