; Function Attrs: nounwind uwtable
define i32 @PKCS7_decrypt(ptr noundef %0, ptr noundef %1, ptr noundef %2, ptr noundef %3, i32 noundef %4) local_unnamed_addr #0 {
  %6 = icmp eq ptr %0, null
  br i1 %6, label %7, label %8

7:                                                ; preds = %5
  tail call void @ERR_new() #3
  tail call void @ERR_set_debug(ptr noundef nonnull @.str, i32 noundef 485, ptr noundef nonnull @__func__.PKCS7_decrypt) #3
  tail call void (i32, i32, ptr, ...) @ERR_set_error(i32 noundef 33, i32 noundef 143, ptr noundef null) #3
  br label %60

8:                                                ; preds = %5
  %9 = getelementptr inbounds nuw i8, ptr %0, i64 24
  %10 = load ptr, ptr %9, align 8, !tbaa !31
  %11 = tail call i32 @OBJ_obj2nid(ptr noundef %10) #3
  %12 = icmp eq i32 %11, 23
  br i1 %12, label %18, label %13

13:                                               ; preds = %8
  %14 = load ptr, ptr %9, align 8, !tbaa !31
  %15 = tail call i32 @OBJ_obj2nid(ptr noundef %14) #3
  %16 = icmp eq i32 %15, 24
  br i1 %16, label %18, label %17

17:                                               ; preds = %13
  tail call void @ERR_new() #3
  tail call void @ERR_set_debug(ptr noundef nonnull @.str, i32 noundef 491, ptr noundef nonnull @__func__.PKCS7_decrypt) #3
  tail call void (i32, i32, ptr, ...) @ERR_set_error(i32 noundef 33, i32 noundef 113, ptr noundef null) #3
  br label %60

18:                                               ; preds = %13, %8
  %.not = icmp eq ptr %2, null
  br i1 %.not, label %22, label %19

19:                                               ; preds = %18
  %20 = tail call i32 @X509_check_private_key(ptr noundef nonnull %2, ptr noundef %1) #3
  %.not44 = icmp eq i32 %20, 0
  br i1 %.not44, label %21, label %22

21:                                               ; preds = %19
  tail call void @ERR_new() #3
  tail call void @ERR_set_debug(ptr noundef nonnull @.str, i32 noundef 497, ptr noundef nonnull @__func__.PKCS7_decrypt) #3
  tail call void (i32, i32, ptr, ...) @ERR_set_error(i32 noundef 33, i32 noundef 127, ptr noundef null) #3
  br label %60

22:                                               ; preds = %19, %18
  %23 = tail call ptr @PKCS7_dataDecode(ptr noundef nonnull %0, ptr noundef %1, ptr noundef null, ptr noundef %2) #3
  %24 = icmp eq ptr %23, null
  br i1 %24, label %25, label %26

25:                                               ; preds = %22
  tail call void @ERR_new() #3
  tail call void @ERR_set_debug(ptr noundef nonnull @.str, i32 noundef 502, ptr noundef nonnull @__func__.PKCS7_decrypt) #3
  tail call void (i32, i32, ptr, ...) @ERR_set_error(i32 noundef 33, i32 noundef 119, ptr noundef null) #3
  br label %60

26:                                               ; preds = %22
  %27 = and i32 %4, 1
  %.not45 = icmp eq i32 %27, 0
  br i1 %.not45, label %47, label %28

28:                                               ; preds = %26
  %29 = tail call ptr @BIO_f_buffer() #3
  %30 = tail call ptr @BIO_new(ptr noundef %29) #3
  %31 = icmp eq ptr %30, null
  br i1 %31, label %32, label %33

32:                                               ; preds = %28
  tail call void @ERR_new() #3
  tail call void @ERR_set_debug(ptr noundef nonnull @.str, i32 noundef 510, ptr noundef nonnull @__func__.PKCS7_decrypt) #3
  tail call void (i32, i32, ptr, ...) @ERR_set_error(i32 noundef 33, i32 noundef 524320, ptr noundef null) #3
  tail call void @BIO_free_all(ptr noundef nonnull %23) #3
  br label %60

33:                                               ; preds = %28
  %34 = tail call ptr @BIO_push(ptr noundef nonnull %30, ptr noundef nonnull %23) #3
  %35 = icmp eq ptr %34, null
  br i1 %35, label %36, label %37

36:                                               ; preds = %33
  tail call void @ERR_new() #3
  tail call void @ERR_set_debug(ptr noundef nonnull @.str, i32 noundef 515, ptr noundef nonnull @__func__.PKCS7_decrypt) #3
  tail call void (i32, i32, ptr, ...) @ERR_set_error(i32 noundef 33, i32 noundef 524320, ptr noundef null) #3
  tail call void @BIO_free_all(ptr noundef nonnull %30) #3
  tail call void @BIO_free_all(ptr noundef nonnull %23) #3
  br label %60

37:                                               ; preds = %33
  %38 = tail call i32 @SMIME_text(ptr noundef nonnull %34, ptr noundef %3) #3
  %39 = icmp sgt i32 %38, 0
  br i1 %39, label %40, label %46

40:                                               ; preds = %37
  %41 = tail call i32 @BIO_method_type(ptr noundef nonnull %23) #3
  %42 = icmp eq i32 %41, 522
  br i1 %42, label %43, label %46

43:                                               ; preds = %40
  %44 = tail call i64 @BIO_ctrl(ptr noundef nonnull %23, i32 noundef 113, i64 noundef 0, ptr noundef null) #3
  %45 = icmp slt i64 %44, 1
  %spec.select = select i1 %45, i32 0, i32 %38
  br label %46

46:                                               ; preds = %43, %40, %37
  %.034 = phi i32 [ %38, %40 ], [ %38, %37 ], [ %spec.select, %43 ]
  tail call void @BIO_free_all(ptr noundef nonnull %34) #3
  br label %60

47:                                               ; preds = %26
  %48 = tail call noalias ptr @CRYPTO_malloc(i64 noundef 4096, ptr noundef nonnull @.str, i32 noundef 528) #3
  %49 = icmp eq ptr %48, null
  br i1 %49, label %.loopexit, label %.preheader

.preheader:                                       ; preds = %47, %58
  %50 = tail call i32 @BIO_read(ptr noundef nonnull %23, ptr noundef nonnull %48, i32 noundef 4096) #3
  %51 = icmp slt i32 %50, 1
  br i1 %51, label %52, label %58

52:                                               ; preds = %.preheader
  %53 = tail call i32 @BIO_method_type(ptr noundef nonnull %23) #3
  %54 = icmp eq i32 %53, 522
  br i1 %54, label %55, label %.loopexit

55:                                               ; preds = %52
  %56 = tail call i64 @BIO_ctrl(ptr noundef nonnull %23, i32 noundef 113, i64 noundef 0, ptr noundef null) #3
  %57 = icmp sgt i64 %56, 0
  %spec.select47 = zext i1 %57 to i32
  br label %.loopexit

58:                                               ; preds = %.preheader
  %59 = tail call i32 @BIO_write(ptr noundef %3, ptr noundef nonnull %48, i32 noundef %50) #3
  %.not46 = icmp eq i32 %59, %50
  br i1 %.not46, label %.preheader, label %.loopexit

.loopexit:                                        ; preds = %58, %55, %52, %47
  %.135 = phi i32 [ 0, %47 ], [ 1, %52 ], [ %spec.select47, %55 ], [ 0, %58 ]
  tail call void @CRYPTO_free(ptr noundef %48, ptr noundef nonnull @.str, i32 noundef 546) #3
  tail call void @BIO_free_all(ptr noundef nonnull %23) #3
  br label %60

60:                                               ; preds = %32, %36, %46, %.loopexit, %25, %21, %17, %7
  %.0 = phi i32 [ 0, %7 ], [ 0, %25 ], [ %.135, %.loopexit ], [ 0, %21 ], [ 0, %17 ], [ 0, %32 ], [ 0, %36 ], [ %.034, %46 ]
  ret i32 %.0
}